Certificate:
    Data:
        Version: 3 (0x2)
        Serial Number:
            4c:46:cc:e3:b1:a7:f1:f9:11:c4:9a:91:48:ff:54:6f:9c:cf:11:eb
        Signature Algorithm: sha256WithRSAEncryption
        Issuer: CN=Test CA, O=example, C=DE
        Validity
            Not Before: Mar 30 08:52:40 2021 GMT
            Not After : Mar 30 08:52:40 2121 GMT
        Subject: C=DE, O=example, CN=S/MIME w/ same validity as OpenPGP
        Subject Public Key Info:
            Public Key Algorithm: rsaEncryption
                RSA Public-Key: (2048 bit)
                Modulus:
                    00:98:3a:0a:a8:d8:32:b7:af:d2:f6:bb:78:ae:1d:
                    22:d6:4f:9e:29:20:7b:6e:d3:95:74:76:50:77:3c:
                    09:8a:6b:1b:ff:33:11:59:10:33:e1:a6:51:72:59:
                    59:76:df:5e:da:ed:47:c2:c1:c6:7c:04:33:25:e1:
                    98:f3:90:1b:d2:da:a2:7b:c6:60:bb:5f:a8:d5:02:
                    95:92:3d:83:aa:6f:ff:9a:12:8a:62:3c:cc:b5:eb:
                    b8:be:91:39:21:fd:85:f9:85:5d:16:52:18:38:33:
                    99:ce:fc:14:18:6b:0f:d1:a2:94:8a:55:75:71:77:
                    50:c0:d5:24:73:59:f0:c6:4b:a8:dc:50:5d:6b:6f:
                    ce:81:0c:0d:23:d1:6b:ee:b5:4d:c3:bf:4d:a1:61:
                    cd:f2:bb:a1:ec:86:8c:0d:bc:9a:89:06:1f:da:f3:
                    2c:11:bd:df:04:6c:1e:f4:ed:1b:27:6a:62:bc:98:
                    e7:de:53:c8:b6:fb:20:f4:de:c8:7c:65:3b:57:07:
                    66:de:f4:9d:7d:05:fc:7a:b2:b6:af:dd:cd:d6:ee:
                    44:44:4a:a6:71:e7:0b:ce:61:17:c5:3a:a7:44:76:
                    79:7c:1e:3a:5b:b1:5a:82:96:0c:db:d6:f0:9d:11:
                    eb:95:2f:81:e4:71:2b:4f:f1:61:7f:73:5c:3d:21:
                    b8:1b
                Exponent: 65537 (0x10001)
        X509v3 extensions:
            X509v3 Subject Alternative Name: 
                email:full-validity@example.net
            X509v3 Key Usage: critical
                Digital Signature, Non Repudiation, Key Encipherment, Data Encipherment
    Signature Algorithm: sha256WithRSAEncryption
         92:52:65:13:3c:03:f7:b0:53:8c:45:a6:46:13:06:9b:b7:3a:
         13:06:cc:52:0d:20:10:ec:0a:ca:d3:85:8b:46:d0:6a:e5:50:
         a8:d2:3c:61:62:9b:e2:c5:2b:d8:85:34:2a:96:2f:90:24:3a:
         d9:b4:9a:3d:e5:a2:26:00:53:23:f9:b1:b2:cc:87:40:30:d6:
         a6:7d:62:9e:7c:ef:ff:a4:78:84:6b:3d:fd:af:c6:7e:c7:90:
         1c:12:ea:b9:af:a7:2f:a7:44:5f:8e:6e:ba:ea:e5:e9:ba:89:
         74:5f:7a:77:ed:8e:df:0a:03:d8:67:bb:59:5b:c8:61:8f:78:
         84:9d:fc:63:3e:78:7d:6f:81:01:85:ee:b2:64:9d:21:a4:1a:
         84:11:04:bb:47:0f:83:54:e7:44:b0:bc:97:a5:85:7b:70:08:
         9b:d1:31:01:6e:3b:cb:42:11:7d:50:13:a0:ff:6f:af:4a:30:
         6f:c0:9b:17:74:71:b4:38:6b:1e:45:4c:f1:ab:99:47:51:a4:
         e1:74:28:fa:ae:bd:98:5e:8a:a0:45:2a:d8:40:42:1f:29:45:
         6b:73:7d:cc:07:37:a0:87:23:dd:24:bc:3c:e6:5c:a8:17:ba:
         50:ab:64:78:35:03:d5:e1:ac:86:98:a4:b3:8d:c9:3b:da:37:
         41:d9:ce:29
-----BEGIN CERTIFICATE-----
MIIDRTCCAi2gAwIBAgIUTEbM47Gn8fkRxJqRSP9Ub5zPEeswDQYJKoZIhvcNAQEL
BQAwMTEQMA4GA1UEAwwHVGVzdCBDQTEQMA4GA1UECgwHZXhhbXBsZTELMAkGA1UE
BhMCREUwIBcNMjEwMzMwMDg1MjQwWhgPMjEyMTAzMzAwODUyNDBaMEwxCzAJBgNV
BAYTAkRFMRAwDgYDVQQKEwdleGFtcGxlMSswKQYDVQQDEyJTL01JTUUgdy8gc2Ft
ZSB2YWxpZGl0eSBhcyBPcGVuUEdQMIIBIjANBgkqhkiG9w0BAQEFAAOCAQ8AMIIB
CgKCAQEAmDoKqNgyt6/S9rt4rh0i1k+eKSB7btOVdHZQdzwJimsb/zMRWRAz4aZR
cllZdt9e2u1HwsHGfAQzJeGY85Ab0tqie8Zgu1+o1QKVkj2Dqm//mhKKYjzMteu4
vpE5If2F+YVdFlIYODOZzvwUGGsP0aKUilV1cXdQwNUkc1nwxkuo3FBda2/OgQwN
I9Fr7rVNw79NoWHN8ruh7IaMDbyaiQYf2vMsEb3fBGwe9O0bJ2pivJjn3lPItvsg
9N7IfGU7Vwdm3vSdfQX8erK2r93N1u5EREqmcecLzmEXxTqnRHZ5fB46W7FagpYM
29bwnRHrlS+B5HErT/Fhf3NcPSG4GwIDAQABozgwNjAkBgNVHREEHTAbgRlmdWxs
LXZhbGlkaXR5QGV4YW1wbGUubmV0MA4GA1UdDwEB/wQEAwIE8DANBgkqhkiG9w0B
AQsFAAOCAQEAklJlEzwD97BTjEWmRhMGm7c6EwbMUg0gEOwKytOFi0bQauVQqNI8
YWKb4sUr2IU0KpYvkCQ62bSaPeWiJgBTI/mxssyHQDDWpn1innzv/6R4hGs9/a/G
fseQHBLqua+nL6dEX45uuurl6bqJdF96d+2O3woD2Ge7WVvIYY94hJ38Yz54fW+B
AYXusmSdIaQahBEEu0cPg1TnRLC8l6WFe3AIm9ExAW47y0IRfVAToP9vr0owb8Cb
F3RxtDhrHkVM8auZR1Gk4XQo+q69mF6KoEUq2EBCHylFa3N9zAc3oIcj3SS8POZc
qBe6UKtkeDUD1eGshpiks43JO9o3QdnOKQ==
-----END CERTIFICATE-----
