Certificate:
    Data:
        Version: 3 (0x2)
        Serial Number:
            53:ce:2c:8d:a0:b7:67:b4:50:82:42:78:c1:53:73:fb:d8:cf:f6:b5
        Signature Algorithm: sha256WithRSAEncryption
        Issuer: CN=Test CA, O=example, C=DE
        Validity
            Not Before: Mar 30 08:53:12 2021 GMT
            Not After : Mar 30 08:53:12 2121 GMT
        Subject: C=DE, O=example, CN=S/MIME w/ lower validity than OpenPGP
        Subject Public Key Info:
            Public Key Algorithm: rsaEncryption
                RSA Public-Key: (2048 bit)
                Modulus:
                    00:b3:af:c4:e4:6e:89:f8:80:c4:22:0e:ae:c1:91:
                    37:ee:fc:ab:30:12:fa:0d:d9:40:e6:c0:19:07:84:
                    5a:6f:dd:e9:9a:35:6c:3b:45:ef:a3:99:1f:c5:aa:
                    fb:81:66:85:d0:6d:92:2d:f8:f7:22:eb:1f:81:a9:
                    55:5b:e7:61:6e:19:6d:6b:01:37:de:21:1a:c6:8a:
                    42:c0:1e:5a:a5:b9:09:ee:b3:24:3b:8d:a7:18:57:
                    92:be:24:d0:a3:7b:27:c0:b6:49:95:3e:22:06:28:
                    9a:64:23:6c:82:ca:b9:27:4c:da:65:d3:42:40:17:
                    71:89:7f:ae:d7:a7:74:ef:64:d5:54:12:0c:2f:06:
                    36:9b:fe:34:46:16:33:e7:78:59:d9:62:12:1a:2b:
                    29:ba:62:41:de:e0:62:67:36:24:36:40:85:14:ca:
                    32:2f:bf:3d:b9:43:3d:40:61:a7:96:bc:95:09:42:
                    61:d6:bb:b3:78:b2:26:63:be:42:c5:3e:8c:9b:90:
                    cf:4e:d4:48:94:6c:f1:16:41:28:5a:66:96:8a:e3:
                    a4:0b:d2:93:b8:3a:c0:fc:8e:bb:15:74:e8:75:e5:
                    8f:6b:33:eb:58:41:9e:12:5f:57:4f:7a:15:8a:f6:
                    bc:de:9e:42:69:eb:60:aa:5b:b1:75:d9:65:61:a8:
                    39:2b
                Exponent: 65537 (0x10001)
        X509v3 extensions:
            X509v3 Subject Alternative Name: 
                email:prefer-openpgp@example.net
            X509v3 Key Usage: critical
                Digital Signature, Non Repudiation, Key Encipherment, Data Encipherment
    Signature Algorithm: sha256WithRSAEncryption
         a4:45:49:11:71:f6:be:67:7f:5a:7e:d4:93:eb:5f:db:85:78:
         03:64:97:e3:db:69:8c:03:18:dd:32:c1:b0:39:aa:db:08:43:
         2a:2f:d3:02:19:c8:af:ba:bb:86:c2:3c:fc:83:6d:84:c4:2d:
         fe:e6:0d:05:3b:39:d3:49:b2:76:50:30:d0:5a:7e:b7:bc:e4:
         ea:14:a3:bc:c8:65:9e:34:c2:7f:6a:f4:59:34:a7:bd:17:54:
         ba:64:53:b3:28:1e:8c:1f:4d:10:4f:18:39:bc:52:46:fc:15:
         f1:10:58:31:80:31:9e:6c:f0:59:01:48:f6:df:2c:8e:69:27:
         77:45:c0:ca:de:78:03:f2:7c:cf:c5:50:31:38:fd:51:39:58:
         a8:13:41:dd:14:11:08:9d:7f:a0:8a:45:74:69:c2:9d:26:63:
         16:09:a4:de:63:96:c7:ec:6a:59:29:e0:02:de:ad:f8:d6:c1:
         ed:15:4c:1a:3c:9d:be:b1:d4:3f:c8:bd:d4:90:e6:14:5d:da:
         41:39:12:21:0c:5b:10:7f:63:89:32:ab:e8:ac:aa:36:e6:83:
         f8:48:fe:ed:74:84:34:18:41:aa:20:96:c9:bf:80:c5:9c:3e:
         85:64:5e:56:8b:22:80:d9:17:42:6f:a1:3b:24:60:50:da:b8:
         4d:e8:05:bf
-----BEGIN CERTIFICATE-----
MIIDSTCCAjGgAwIBAgIUU84sjaC3Z7RQgkJ4wVNz+9jP9rUwDQYJKoZIhvcNAQEL
BQAwMTEQMA4GA1UEAwwHVGVzdCBDQTEQMA4GA1UECgwHZXhhbXBsZTELMAkGA1UE
BhMCREUwIBcNMjEwMzMwMDg1MzEyWhgPMjEyMTAzMzAwODUzMTJaME8xCzAJBgNV
BAYTAkRFMRAwDgYDVQQKEwdleGFtcGxlMS4wLAYDVQQDEyVTL01JTUUgdy8gbG93
ZXIgdmFsaWRpdHkgdGhhbiBPcGVuUEdQMIIBIjANBgkqhkiG9w0BAQEFAAOCAQ8A
MIIBCgKCAQEAs6/E5G6J+IDEIg6uwZE37vyrMBL6DdlA5sAZB4Rab93pmjVsO0Xv
o5kfxar7gWaF0G2SLfj3IusfgalVW+dhbhltawE33iEaxopCwB5apbkJ7rMkO42n
GFeSviTQo3snwLZJlT4iBiiaZCNsgsq5J0zaZdNCQBdxiX+u16d072TVVBIMLwY2
m/40RhYz53hZ2WISGispumJB3uBiZzYkNkCFFMoyL789uUM9QGGnlryVCUJh1ruz
eLImY75CxT6Mm5DPTtRIlGzxFkEoWmaWiuOkC9KTuDrA/I67FXTodeWPazPrWEGe
El9XT3oViva83p5CaetgqluxddllYag5KwIDAQABozkwNzAlBgNVHREEHjAcgRpw
cmVmZXItb3BlbnBncEBleGFtcGxlLm5ldDAOBgNVHQ8BAf8EBAMCBPAwDQYJKoZI
hvcNAQELBQADggEBAKRFSRFx9r5nf1p+1JPrX9uFeANkl+PbaYwDGN0ywbA5qtsI
Qyov0wIZyK+6u4bCPPyDbYTELf7mDQU7OdNJsnZQMNBafre85OoUo7zIZZ40wn9q
9Fk0p70XVLpkU7MoHowfTRBPGDm8Ukb8FfEQWDGAMZ5s8FkBSPbfLI5pJ3dFwMre
eAPyfM/FUDE4/VE5WKgTQd0UEQidf6CKRXRpwp0mYxYJpN5jlsfsalkp4ALerfjW
we0VTBo8nb6x1D/IvdSQ5hRd2kE5EiEMWxB/Y4kyq+isqjbmg/hI/u10hDQYQaog
lsm/gMWcPoVkXlaLIoDZF0JvoTskYFDauE3oBb8=
-----END CERTIFICATE-----
