Certificate:
    Data:
        Version: 3 (0x2)
        Serial Number:
            62:37:d5:88:0a:ba:85:5c:bf:38:29:ff:0d:e1:ff:96:bf:7f:de:60
        Signature Algorithm: sha256WithRSAEncryption
        Issuer: CN=Test CA, O=example, C=DE
        Validity
            Not Before: Mar 29 13:48:34 2021 GMT
            Not After : Mar 29 13:48:34 2121 GMT
        Subject: C=DE, O=example, CN=Sender S/MIME
        Subject Public Key Info:
            Public Key Algorithm: rsaEncryption
                RSA Public-Key: (2048 bit)
                Modulus:
                    00:d6:80:03:3a:d9:31:cb:37:de:bd:89:77:c6:c5:
                    c4:e0:b6:bc:7f:73:9a:7f:aa:d7:52:10:38:2b:d2:
                    95:53:0d:3d:a1:c4:de:46:61:f3:6a:09:b3:29:11:
                    94:9b:fa:09:c3:45:69:f9:1f:d5:5c:a5:c4:a5:bf:
                    a6:92:91:10:95:b7:e8:0a:4b:d2:fb:27:d9:67:d3:
                    fc:6f:d9:6d:71:9a:38:f5:84:93:e8:82:3b:91:46:
                    9a:17:32:8a:bd:36:82:44:35:a4:df:1a:30:a5:45:
                    8b:2a:49:f5:e7:c0:dc:4b:24:0c:f9:f2:e5:33:56:
                    82:20:a1:a7:97:89:1e:be:15:f8:f0:b4:15:54:c4:
                    16:05:31:b8:76:cf:5f:ab:05:66:20:5b:64:bd:21:
                    f7:a2:60:81:1a:03:20:fe:dd:ad:82:da:56:6c:f4:
                    d1:a4:e2:97:2c:18:fd:bc:e3:23:c9:4b:51:eb:f4:
                    4c:62:5b:1d:98:29:12:f5:24:e9:02:96:91:3c:1b:
                    8b:27:f0:c7:7f:9e:28:6a:b7:e5:82:ec:94:c8:9e:
                    65:df:5a:76:bc:3c:30:69:66:bc:96:1f:2d:3e:35:
                    6b:18:be:8a:e8:21:29:58:81:67:d9:65:4f:70:5d:
                    82:56:2f:2b:5c:db:94:d1:34:01:1f:84:14:8d:e8:
                    10:4f
                Exponent: 65537 (0x10001)
        X509v3 extensions:
            X509v3 Subject Alternative Name: 
                email:sender-smime@example.net
            X509v3 Key Usage: critical
                Digital Signature, Non Repudiation, Key Encipherment, Data Encipherment
    Signature Algorithm: sha256WithRSAEncryption
         a2:53:89:92:9a:6f:57:63:38:22:0b:03:80:1d:ba:f8:9a:dc:
         7c:d6:44:9e:1d:eb:20:fa:3b:7c:17:46:95:17:91:d9:c6:61:
         c8:78:ed:1c:3e:38:6e:46:e3:45:5a:9e:e5:b6:f3:ac:65:d8:
         5d:1e:bb:71:cb:52:22:c7:51:c1:13:11:dd:09:cc:87:d7:aa:
         47:f3:92:b0:2a:5c:c4:ce:30:97:b3:66:16:ed:55:19:d8:fe:
         29:c2:7f:bf:25:dd:d4:c3:32:54:9b:fe:46:5a:75:39:93:d1:
         db:d8:6d:83:e5:8f:f3:9f:2b:47:a6:24:cc:88:70:b8:7c:fd:
         70:25:28:c0:48:43:e3:be:9f:35:bf:47:54:73:18:af:82:0a:
         41:e2:16:89:a7:b0:0e:e4:fa:ef:c7:09:6e:90:03:b4:3d:fb:
         93:93:52:29:f6:16:b3:2e:86:b0:61:36:15:e1:2e:26:4f:03:
         ec:af:6f:d1:33:16:a4:1f:03:03:ef:d7:ba:17:53:8a:93:fa:
         ff:86:39:e0:73:fc:df:59:5b:1d:94:21:db:48:71:51:ba:f8:
         e3:69:b3:43:10:b4:38:44:e9:28:16:63:d5:25:9e:87:49:34:
         bd:b5:44:6b:a6:3c:13:bb:8f:18:6b:6f:27:3b:02:7f:1e:30:
         3f:21:7f:77
-----BEGIN CERTIFICATE-----
MIIDLzCCAhegAwIBAgIUYjfViAq6hVy/OCn/DeH/lr9/3mAwDQYJKoZIhvcNAQEL
BQAwMTEQMA4GA1UEAwwHVGVzdCBDQTEQMA4GA1UECgwHZXhhbXBsZTELMAkGA1UE
BhMCREUwIBcNMjEwMzI5MTM0ODM0WhgPMjEyMTAzMjkxMzQ4MzRaMDcxCzAJBgNV
BAYTAkRFMRAwDgYDVQQKEwdleGFtcGxlMRYwFAYDVQQDEw1TZW5kZXIgUy9NSU1F
MIIBIjANBgkqhkiG9w0BAQEFAAOCAQ8AMIIBCgKCAQEA1oADOtkxyzfevYl3xsXE
4La8f3Oaf6rXUhA4K9KVUw09ocTeRmHzagmzKRGUm/oJw0Vp+R/VXKXEpb+mkpEQ
lbfoCkvS+yfZZ9P8b9ltcZo49YST6II7kUaaFzKKvTaCRDWk3xowpUWLKkn158Dc
SyQM+fLlM1aCIKGnl4kevhX48LQVVMQWBTG4ds9fqwVmIFtkvSH3omCBGgMg/t2t
gtpWbPTRpOKXLBj9vOMjyUtR6/RMYlsdmCkS9STpApaRPBuLJ/DHf54oarflguyU
yJ5l31p2vDwwaWa8lh8tPjVrGL6K6CEpWIFn2WVPcF2CVi8rXNuU0TQBH4QUjegQ
TwIDAQABozcwNTAjBgNVHREEHDAagRhzZW5kZXItc21pbWVAZXhhbXBsZS5uZXQw
DgYDVR0PAQH/BAQDAgTwMA0GCSqGSIb3DQEBCwUAA4IBAQCiU4mSmm9XYzgiCwOA
Hbr4mtx81kSeHesg+jt8F0aVF5HZxmHIeO0cPjhuRuNFWp7ltvOsZdhdHrtxy1Ii
x1HBExHdCcyH16pH85KwKlzEzjCXs2YW7VUZ2P4pwn+/Jd3UwzJUm/5GWnU5k9Hb
2G2D5Y/znytHpiTMiHC4fP1wJSjASEPjvp81v0dUcxivggpB4haJp7AO5Prvxwlu
kAO0PfuTk1Ip9hazLoawYTYV4S4mTwPsr2/RMxakHwMD79e6F1OKk/r/hjngc/zf
WVsdlCHbSHFRuvjjabNDELQ4ROkoFmPVJZ6HSTS9tURrpjwTu48Ya28nOwJ/HjA/
IX93
-----END CERTIFICATE-----
