Certificate:
    Data:
        Version: 3 (0x2)
        Serial Number:
            68:9e:5d:5e:dd:5c:64:ba:42:3e:26:fc:74:ab:c2:93:45:60:0d:73
        Signature Algorithm: sha256WithRSAEncryption
        Issuer: CN=Test CA, O=example, C=DE
        Validity
            Not Before: Mar  3 09:35:17 2022 GMT
            Not After : Mar  3 09:35:17 2122 GMT
        Subject: C=DE, O=example, CN=S/MIME w/ full validity
        Subject Public Key Info:
            Public Key Algorithm: rsaEncryption
                RSA Public-Key: (2048 bit)
                Modulus:
                    00:c4:78:ad:91:29:78:20:73:84:1c:77:31:a6:0c:
                    43:35:a6:54:a6:29:11:ef:40:f9:31:26:41:62:c1:
                    5a:11:17:1f:d3:8a:4e:85:cf:0d:02:a4:49:c3:26:
                    98:88:7e:42:fa:82:a1:77:79:8e:8a:5c:3f:99:f9:
                    16:09:60:32:9b:b3:91:f8:b8:0e:3e:9b:65:6a:ec:
                    f2:cd:a0:4d:81:96:aa:55:bc:67:21:73:25:ba:99:
                    e4:23:11:b3:f7:54:24:03:e8:27:6c:c6:7f:d9:24:
                    97:73:a5:d6:69:52:e3:36:14:08:df:44:1a:2a:52:
                    d7:64:fa:c7:cd:67:43:59:08:f6:01:50:04:6b:27:
                    b7:e0:09:5b:19:3a:5e:87:75:e1:be:e1:00:62:fe:
                    e0:ee:fb:7b:b1:0f:c1:e8:ba:13:1b:06:d4:8d:a7:
                    6e:21:6d:9d:f9:54:3a:3d:62:92:86:43:6b:6b:8e:
                    7e:07:68:ee:05:22:36:18:64:5f:eb:3d:81:d5:fc:
                    dd:c4:53:c1:f3:51:a9:f3:31:1e:90:cd:f7:2e:d2:
                    8b:c4:a2:a0:40:fe:55:6e:1b:ca:d5:6a:70:4a:41:
                    a6:98:3c:f8:5f:2f:55:af:f5:ce:d9:27:87:99:9b:
                    8d:8c:e5:f3:17:65:e8:6a:62:e6:47:da:04:89:d1:
                    f4:d5
                Exponent: 65537 (0x10001)
        X509v3 extensions:
            X509v3 Subject Alternative Name: 
                email:smime-only@example.net
            X509v3 Key Usage: critical
                Digital Signature, Non Repudiation, Key Encipherment, Data Encipherment
    Signature Algorithm: sha256WithRSAEncryption
         4b:92:47:cc:8b:a7:1d:d6:1a:f1:4d:e2:29:ab:65:ba:82:6e:
         8c:2e:62:bf:9f:54:bf:28:ed:c4:7f:29:f4:5f:dd:4f:3d:72:
         dc:00:b0:c9:7c:fc:db:51:15:6e:13:2b:b3:75:55:56:d6:05:
         bb:ee:d7:2e:8b:5c:5e:4c:70:db:e5:94:34:95:03:b5:bd:56:
         58:0f:e1:58:b1:c2:6c:97:56:e0:a6:50:1f:76:5a:bc:2b:2d:
         89:d8:b3:1a:e8:c2:8e:db:d6:e2:f8:60:5d:33:6e:00:05:2a:
         21:cb:6c:e8:ee:b7:41:4b:7c:1d:fc:d2:3d:37:5e:1b:3e:c1:
         20:34:93:f2:c6:fa:2e:b8:c3:7c:84:0e:28:d5:b0:92:47:4d:
         c7:94:67:d6:7a:3d:c7:0b:50:28:d0:5b:b6:f1:3f:fc:cb:4b:
         4e:41:37:4d:c0:ab:06:56:ea:47:4a:be:5c:7c:6d:63:90:83:
         77:dc:a9:cc:08:b2:bc:69:47:da:26:7a:df:5c:4f:f2:9c:44:
         6b:28:22:09:8e:55:69:9c:9f:45:92:b4:25:72:ec:5d:8b:34:
         36:44:d3:1e:fd:bb:57:06:d8:0e:b2:cd:d0:04:1a:db:cf:5e:
         d3:bb:3b:dc:c9:3f:9f:ba:e8:1f:63:ef:0e:12:40:d5:65:d7:
         0e:e8:6d:f1
-----BEGIN CERTIFICATE-----
MIIDNzCCAh+gAwIBAgIUaJ5dXt1cZLpCPib8dKvCk0VgDXMwDQYJKoZIhvcNAQEL
BQAwMTEQMA4GA1UEAwwHVGVzdCBDQTEQMA4GA1UECgwHZXhhbXBsZTELMAkGA1UE
BhMCREUwIBcNMjIwMzAzMDkzNTE3WhgPMjEyMjAzMDMwOTM1MTdaMEExCzAJBgNV
BAYTAkRFMRAwDgYDVQQKEwdleGFtcGxlMSAwHgYDVQQDExdTL01JTUUgdy8gZnVs
bCB2YWxpZGl0eTCCASIwDQYJKoZIhvcNAQEBBQADggEPADCCAQoCggEBAMR4rZEp
eCBzhBx3MaYMQzWmVKYpEe9A+TEmQWLBWhEXH9OKToXPDQKkScMmmIh+QvqCoXd5
jopcP5n5FglgMpuzkfi4Dj6bZWrs8s2gTYGWqlW8ZyFzJbqZ5CMRs/dUJAPoJ2zG
f9kkl3Ol1mlS4zYUCN9EGipS12T6x81nQ1kI9gFQBGsnt+AJWxk6Xod14b7hAGL+
4O77e7EPwei6ExsG1I2nbiFtnflUOj1ikoZDa2uOfgdo7gUiNhhkX+s9gdX83cRT
wfNRqfMxHpDN9y7Si8SioED+VW4bytVqcEpBppg8+F8vVa/1ztknh5mbjYzl8xdl
6Gpi5kfaBInR9NUCAwEAAaM1MDMwIQYDVR0RBBowGIEWc21pbWUtb25seUBleGFt
cGxlLm5ldDAOBgNVHQ8BAf8EBAMCBPAwDQYJKoZIhvcNAQELBQADggEBAEuSR8yL
px3WGvFN4imrZbqCbowuYr+fVL8o7cR/KfRf3U89ctwAsMl8/NtRFW4TK7N1VVbW
Bbvu1y6LXF5McNvllDSVA7W9VlgP4VixwmyXVuCmUB92WrwrLYnYsxrowo7b1uL4
YF0zbgAFKiHLbOjut0FLfB380j03Xhs+wSA0k/LG+i64w3yEDijVsJJHTceUZ9Z6
PccLUCjQW7bxP/zLS05BN03AqwZW6kdKvlx8bWOQg3fcqcwIsrxpR9omet9cT/Kc
RGsoIgmOVWmcn0WStCVy7F2LNDZE0x79u1cG2A6yzdAEGtvPXtO7O9zJP5+66B9j
7w4SQNVl1w7obfE=
-----END CERTIFICATE-----
