Certificate:
    Data:
        Version: 3 (0x2)
        Serial Number:
            6c:48:cc:e8:71:6d:16:09:d0:d1:07:5f:4d:58:2c:8d:c3:07:d1:ee
        Signature Algorithm: sha256WithRSAEncryption
        Issuer: CN=Test CA, O=example, C=DE
        Validity
            Not Before: Mar 30 08:06:56 2021 GMT
            Not After : Mar 30 08:06:56 2121 GMT
        Subject: C=DE, O=example, CN=Trusted S/MIME
        Subject Public Key Info:
            Public Key Algorithm: rsaEncryption
                RSA Public-Key: (2048 bit)
                Modulus:
                    00:bd:3b:af:ed:43:6c:4a:06:37:9d:76:41:7d:20:
                    c0:20:d8:25:62:5c:03:55:8c:e8:49:bd:b8:29:3b:
                    90:3d:8b:8b:5d:0e:b2:d8:a0:39:ea:e7:ce:c5:e8:
                    8f:c4:c8:55:a8:8f:9d:b5:4a:ba:60:ce:09:a7:ab:
                    4d:3c:fd:f0:71:52:69:41:fa:e9:cc:a7:42:b3:2a:
                    66:08:83:53:e0:03:58:67:ff:4f:9e:50:da:b2:57:
                    aa:f0:0c:9d:61:eb:0b:da:a0:0c:e0:43:11:87:4a:
                    62:1a:37:ba:95:41:52:e5:9e:de:25:5a:70:4c:06:
                    09:02:5a:ff:2a:3c:5c:b2:b5:b0:20:76:62:64:0e:
                    16:21:9a:5d:a9:5c:79:13:5b:ee:bb:be:4f:66:e3:
                    9d:62:88:28:50:d3:dc:d9:bd:29:31:6c:cd:da:7b:
                    d4:f6:5f:49:21:85:54:09:56:29:83:5d:e7:43:8e:
                    e8:7d:6e:08:f4:43:9f:d5:ed:6b:13:8b:98:1d:58:
                    5c:11:b1:c6:98:33:c4:ca:4f:2b:b5:b9:54:40:d0:
                    ab:6b:d9:11:76:26:49:65:5a:7e:05:09:3a:bd:04:
                    dc:05:57:dd:c9:a3:c7:2d:8c:c4:ec:45:9b:8f:04:
                    c9:de:12:6d:f9:14:c7:62:6b:fd:6c:32:20:8a:ca:
                    e4:27
                Exponent: 65537 (0x10001)
        X509v3 extensions:
            X509v3 Subject Alternative Name: 
                email:prefer-smime@example.net
            X509v3 Key Usage: critical
                Digital Signature, Non Repudiation, Key Encipherment, Data Encipherment
    Signature Algorithm: sha256WithRSAEncryption
         75:2a:a7:09:d2:c4:5a:f3:51:e4:12:41:4f:9a:fd:14:39:64:
         57:3c:9c:e1:04:6c:89:56:c6:b4:b5:7f:1d:cd:a3:e8:d0:6b:
         fb:29:4c:d1:37:ea:81:4e:24:a7:e7:76:17:7b:e6:0c:f1:61:
         dc:19:65:f6:c4:e2:86:60:79:ae:1f:93:f9:52:78:5c:83:21:
         6c:d5:4f:62:e7:28:66:77:64:ee:2f:bd:6c:51:69:98:5c:b3:
         1e:6c:fb:dc:bd:5a:79:d4:22:7d:e1:90:8f:98:01:f7:99:bc:
         07:bc:5d:f6:00:6b:12:3c:c8:6d:20:a9:68:b3:01:f4:0d:23:
         ed:d8:35:3e:49:04:98:5c:6d:14:69:60:75:fb:b9:26:d4:91:
         57:3a:c8:6f:80:b2:83:03:f9:99:58:45:59:8d:3a:82:1d:04:
         2a:db:83:da:22:f9:e9:5a:c1:0b:49:a2:21:18:53:c3:fe:f8:
         fc:cb:be:ee:f6:12:10:49:9e:9a:86:f8:ca:34:2d:96:41:ed:
         51:29:12:73:3f:08:4e:4b:c1:7d:7f:29:9e:38:96:26:ef:2b:
         df:ab:79:90:42:52:9c:cf:0e:04:d4:38:39:70:93:2a:cc:a5:
         8d:83:e0:2d:c5:f6:e6:0b:a4:6a:16:07:8e:fd:49:91:11:b5:
         b5:b6:b5:ab
-----BEGIN CERTIFICATE-----
MIIDMDCCAhigAwIBAgIUbEjM6HFtFgnQ0QdfTVgsjcMH0e4wDQYJKoZIhvcNAQEL
BQAwMTEQMA4GA1UEAwwHVGVzdCBDQTEQMA4GA1UECgwHZXhhbXBsZTELMAkGA1UE
BhMCREUwIBcNMjEwMzMwMDgwNjU2WhgPMjEyMTAzMzAwODA2NTZaMDgxCzAJBgNV
BAYTAkRFMRAwDgYDVQQKEwdleGFtcGxlMRcwFQYDVQQDEw5UcnVzdGVkIFMvTUlN
RTCCASIwDQYJKoZIhvcNAQEBBQADggEPADCCAQoCggEBAL07r+1DbEoGN512QX0g
wCDYJWJcA1WM6Em9uCk7kD2Li10OstigOernzsXoj8TIVaiPnbVKumDOCaerTTz9
8HFSaUH66cynQrMqZgiDU+ADWGf/T55Q2rJXqvAMnWHrC9qgDOBDEYdKYho3upVB
UuWe3iVacEwGCQJa/yo8XLK1sCB2YmQOFiGaXalceRNb7ru+T2bjnWKIKFDT3Nm9
KTFszdp71PZfSSGFVAlWKYNd50OO6H1uCPRDn9XtaxOLmB1YXBGxxpgzxMpPK7W5
VEDQq2vZEXYmSWVafgUJOr0E3AVX3cmjxy2MxOxFm48Eyd4SbfkUx2Jr/WwyIIrK
5CcCAwEAAaM3MDUwIwYDVR0RBBwwGoEYcHJlZmVyLXNtaW1lQGV4YW1wbGUubmV0
MA4GA1UdDwEB/wQEAwIE8DANBgkqhkiG9w0BAQsFAAOCAQEAdSqnCdLEWvNR5BJB
T5r9FDlkVzyc4QRsiVbGtLV/Hc2j6NBr+ylM0TfqgU4kp+d2F3vmDPFh3Bll9sTi
hmB5rh+T+VJ4XIMhbNVPYucoZndk7i+9bFFpmFyzHmz73L1aedQifeGQj5gB95m8
B7xd9gBrEjzIbSCpaLMB9A0j7dg1PkkEmFxtFGlgdfu5JtSRVzrIb4CygwP5mVhF
WY06gh0EKtuD2iL56VrBC0miIRhTw/74/Mu+7vYSEEmemob4yjQtlkHtUSkScz8I
TkvBfX8pnjiWJu8r36t5kEJSnM8OBNQ4OXCTKsyljYPgLcX25gukahYHjv1JkRG1
tba1qw==
-----END CERTIFICATE-----
