Certificate:
    Data:
        Version: 3 (0x2)
        Serial Number:
            70:ce:eb:a7:10:b7:fb:f4:11:84:fb:b6:a5:0a:c8:9d:45:9e:57:4d
        Signature Algorithm: sha256WithRSAEncryption
        Issuer: CN=Test CA, O=example, C=DE
        Validity
            Not Before: Mar 29 12:02:47 2021 GMT
            Not After : Mar 29 12:02:47 2121 GMT
        Subject: C=DE, O=example, CN=Sender Mixed
        Subject Public Key Info:
            Public Key Algorithm: rsaEncryption
                RSA Public-Key: (2048 bit)
                Modulus:
                    00:b3:0f:02:88:b9:2b:0d:8a:d8:a5:84:12:e9:50:
                    60:33:2f:61:db:a6:86:a7:b9:a5:00:71:de:13:65:
                    a3:d0:08:3a:4e:29:52:67:07:78:89:52:ca:f5:79:
                    ef:6e:20:93:23:87:72:06:e1:ce:e3:10:92:d1:44:
                    ee:de:64:27:f1:0c:10:26:47:82:aa:1f:01:b2:24:
                    f8:ad:95:76:0b:e2:f0:27:9b:c2:24:6b:d1:34:cc:
                    9d:78:d0:a0:82:ec:97:31:e0:4d:79:f7:d9:57:56:
                    59:9c:d5:f0:61:1f:bf:24:29:cd:1d:11:ac:f5:c6:
                    90:ec:cc:6e:be:f8:e4:78:d6:f7:9f:db:e6:77:23:
                    7b:54:e8:01:22:50:bc:a0:1d:5f:76:1c:f8:13:6b:
                    e5:44:10:c8:75:92:22:0e:b1:4e:79:75:c4:5e:af:
                    4c:b7:89:2a:6f:f9:fb:3d:30:a0:ed:cc:97:bf:6a:
                    19:6e:fe:00:e6:7e:ff:63:d0:cd:8b:02:3c:fb:ba:
                    77:61:4a:60:fe:19:57:a6:b8:46:cc:b5:f9:39:ec:
                    84:2f:cb:59:98:85:79:98:19:25:1a:d9:79:23:b2:
                    2e:2c:84:24:c7:52:65:3d:f5:17:41:b4:4f:b1:d4:
                    f7:37:7b:37:a4:f6:4f:82:56:60:4c:34:a3:5a:26:
                    cb:05
                Exponent: 65537 (0x10001)
        X509v3 extensions:
            X509v3 Subject Alternative Name: 
                email:sender-mixed@example.net
            X509v3 Key Usage: critical
                Digital Signature, Non Repudiation, Key Encipherment, Data Encipherment
    Signature Algorithm: sha256WithRSAEncryption
         09:5d:c4:a9:c9:30:ea:0f:bc:80:1d:5b:a9:ee:78:02:bc:ac:
         07:c1:0c:16:25:c3:80:a2:10:bd:be:a5:32:de:c9:5f:fe:9b:
         20:91:6e:71:68:f6:b0:9a:9f:59:ed:57:a0:b0:27:1d:fd:9a:
         18:36:87:f0:02:6d:9f:c8:8b:c4:e9:37:a6:80:f2:66:9d:8f:
         55:8f:8a:7e:ba:92:c1:a1:d1:3d:f9:71:be:2a:82:e0:2f:30:
         5c:c9:2a:02:71:a6:3c:be:34:c6:ee:f2:3d:5b:19:59:06:7c:
         01:d3:f3:4a:fb:a4:6b:c2:1a:29:4e:b7:7b:51:7e:f5:86:5c:
         b2:65:97:a7:fc:43:a4:6f:2e:ec:2c:a5:44:04:db:6b:57:9b:
         8e:4b:5d:da:39:09:00:08:7b:f4:2c:13:70:57:31:33:94:10:
         61:60:9b:41:d5:85:ec:05:b8:c3:fa:ac:de:ac:08:e6:a9:a3:
         d9:34:2a:3a:e2:12:9c:0e:50:7b:02:60:cb:1d:f6:d0:68:c9:
         e5:70:ed:53:c7:93:a9:74:5f:7d:53:8e:8a:81:be:27:f9:d6:
         2f:0a:2a:c5:0b:25:5b:c0:bb:0b:c0:6a:fd:3f:b8:5a:52:b4:
         d5:21:0e:ae:85:5e:dd:d9:1d:c5:3c:ff:12:e5:6b:25:f9:7d:
         98:8b:e8:b0
-----BEGIN CERTIFICATE-----
MIIDLjCCAhagAwIBAgIUcM7rpxC3+/QRhPu2pQrInUWeV00wDQYJKoZIhvcNAQEL
BQAwMTEQMA4GA1UEAwwHVGVzdCBDQTEQMA4GA1UECgwHZXhhbXBsZTELMAkGA1UE
BhMCREUwIBcNMjEwMzI5MTIwMjQ3WhgPMjEyMTAzMjkxMjAyNDdaMDYxCzAJBgNV
BAYTAkRFMRAwDgYDVQQKEwdleGFtcGxlMRUwEwYDVQQDEwxTZW5kZXIgTWl4ZWQw
ggEiMA0GCSqGSIb3DQEBAQUAA4IBDwAwggEKAoIBAQCzDwKIuSsNitilhBLpUGAz
L2HbpoanuaUAcd4TZaPQCDpOKVJnB3iJUsr1ee9uIJMjh3IG4c7jEJLRRO7eZCfx
DBAmR4KqHwGyJPitlXYL4vAnm8Ika9E0zJ140KCC7Jcx4E1599lXVlmc1fBhH78k
Kc0dEaz1xpDszG6++OR41vef2+Z3I3tU6AEiULygHV92HPgTa+VEEMh1kiIOsU55
dcRer0y3iSpv+fs9MKDtzJe/ahlu/gDmfv9j0M2LAjz7undhSmD+GVemuEbMtfk5
7IQvy1mYhXmYGSUa2Xkjsi4shCTHUmU99RdBtE+x1Pc3ezek9k+CVmBMNKNaJssF
AgMBAAGjNzA1MCMGA1UdEQQcMBqBGHNlbmRlci1taXhlZEBleGFtcGxlLm5ldDAO
BgNVHQ8BAf8EBAMCBPAwDQYJKoZIhvcNAQELBQADggEBAAldxKnJMOoPvIAdW6nu
eAK8rAfBDBYlw4CiEL2+pTLeyV/+myCRbnFo9rCan1ntV6CwJx39mhg2h/ACbZ/I
i8TpN6aA8madj1WPin66ksGh0T35cb4qguAvMFzJKgJxpjy+NMbu8j1bGVkGfAHT
80r7pGvCGilOt3tRfvWGXLJll6f8Q6RvLuwspUQE22tXm45LXdo5CQAIe/QsE3BX
MTOUEGFgm0HVhewFuMP6rN6sCOapo9k0KjriEpwOUHsCYMsd9tBoyeVw7VPHk6l0
X31TjoqBvif51i8KKsULJVvAuwvAav0/uFpStNUhDq6FXt3ZHcU8/xLlayX5fZiL
6LA=
-----END CERTIFICATE-----
